; Function Attrs: mustprogress nofree norecurse nosync nounwind willreturn memory(none) uwtable
define noundef i32 @_ZN3net19HpackHuffmanDecoder17DecodeToCanonicalEmj(i64 noundef %0, i32 noundef %1) local_unnamed_addr #0 align 2 personality ptr @__gxx_personality_v0 {
  %3 = getelementptr inbounds nuw [31 x i32], ptr @_ZN3net12_GLOBAL__N_120kLengthToFirstLJCodeE, i64 0, i64 %0
  %4 = load i32, ptr %3, align 4, !tbaa !3
  %5 = getelementptr inbounds nuw [31 x i8], ptr @_ZN3net12_GLOBAL__N_123kLengthToFirstCanonicalE, i64 0, i64 %0
  %6 = load i8, ptr %5, align 1, !tbaa !7
  %7 = zext i8 %6 to i32
  %8 = sub i32 %1, %4
  %9 = trunc i64 %0 to i32
  %10 = sub i32 32, %9
  %11 = lshr i32 %8, %10
  %12 = add i32 %11, %7
  ret i32 %12
}